target datalayout = "e-m:e-p270:32:32-p271:32:32-p272:64:64-i64:64-i128:128-f80:128-n8:16:32:64-S128"
target triple = "x86_64-pc-linux-gnu"

@.str = private unnamed_addr constant [2 x i8] c"r\00", align 1
@stderr = external global ptr, align 8
@.str.1 = private unnamed_addr constant [26 x i8] c"Can't open table file %s\0A\00", align 1
@.str.2 = private unnamed_addr constant [28 x i8] c"Too many tables in file %s\0A\00", align 1
@.str.3 = private unnamed_addr constant [31 x i8] c"Invalid table data in file %s\0A\00", align 1
@q_scale_factor = internal global [4 x i32] [i32 100, i32 100, i32 100, i32 100], align 16
@.str.4 = private unnamed_addr constant [29 x i8] c"Non-numeric data in file %s\0A\00", align 1

; Function Attrs: nounwind uwtable
define dso_local i32 @read_quant_tables(ptr noundef %0, ptr noundef %1, i32 noundef %2) #0 {
  %4 = alloca i32, align 4
  %5 = alloca ptr, align 8
  %6 = alloca ptr, align 8
  %7 = alloca i32, align 4
  %8 = alloca ptr, align 8
  %9 = alloca i32, align 4
  %10 = alloca i32, align 4
  %11 = alloca i32, align 4
  %12 = alloca i64, align 8
  %13 = alloca [64 x i32], align 16
  %14 = alloca i32, align 4
  store ptr %0, ptr %5, align 8, !tbaa !4
  store ptr %1, ptr %6, align 8, !tbaa !9
  store i32 %2, ptr %7, align 4, !tbaa !11
  call void @llvm.lifetime.start.p0(i64 8, ptr %8) #6
  call void @llvm.lifetime.start.p0(i64 4, ptr %9) #6
  call void @llvm.lifetime.start.p0(i64 4, ptr %10) #6
  call void @llvm.lifetime.start.p0(i64 4, ptr %11) #6
  call void @llvm.lifetime.start.p0(i64 8, ptr %12) #6
  call void @llvm.lifetime.start.p0(i64 256, ptr %13) #6
  %15 = load ptr, ptr %6, align 8, !tbaa !9
  %16 = call noalias ptr @fopen(ptr noundef %15, ptr noundef @.str)
  store ptr %16, ptr %8, align 8, !tbaa !13
  %17 = icmp eq ptr %16, null
  br i1 %17, label %18, label %22

18:                                               ; preds = %3
  %19 = load ptr, ptr @stderr, align 8, !tbaa !13
  %20 = load ptr, ptr %6, align 8, !tbaa !9
  %21 = call i32 (ptr, ptr, ...) @fprintf(ptr noundef %19, ptr noundef @.str.1, ptr noundef %20) #6
  store i32 0, ptr %4, align 4
  store i32 1, ptr %14, align 4
  br label %85

22:                                               ; preds = %3
  store i32 0, ptr %9, align 4, !tbaa !11
  br label %23

23:                                               ; preds = %62, %22
  %24 = load ptr, ptr %8, align 8, !tbaa !13
  %25 = call i32 @read_text_integer(ptr noundef %24, ptr noundef %12, ptr noundef %11)
  %26 = icmp ne i32 %25, 0
  br i1 %26, label %27, label %73

27:                                               ; preds = %23
  %28 = load i32, ptr %9, align 4, !tbaa !11
  %29 = icmp sge i32 %28, 4
  br i1 %29, label %30, label %36

30:                                               ; preds = %27
  %31 = load ptr, ptr @stderr, align 8, !tbaa !13
  %32 = load ptr, ptr %6, align 8, !tbaa !9
  %33 = call i32 (ptr, ptr, ...) @fprintf(ptr noundef %31, ptr noundef @.str.2, ptr noundef %32) #6
  %34 = load ptr, ptr %8, align 8, !tbaa !13
  %35 = call i32 @fclose(ptr noundef %34)
  store i32 0, ptr %4, align 4
  store i32 1, ptr %14, align 4
  br label %85

36:                                               ; preds = %27
  %37 = load i64, ptr %12, align 8, !tbaa !15
  %38 = trunc i64 %37 to i32
  %39 = getelementptr inbounds [64 x i32], ptr %13, i64 0, i64 0
  store i32 %38, ptr %39, align 16, !tbaa !11
  store i32 1, ptr %10, align 4, !tbaa !11
  br label %40

40:                                               ; preds = %59, %36
  %41 = load i32, ptr %10, align 4, !tbaa !11
  %42 = icmp slt i32 %41, 64
  br i1 %42, label %43, label %62

43:                                               ; preds = %40
  %44 = load ptr, ptr %8, align 8, !tbaa !13
  %45 = call i32 @read_text_integer(ptr noundef %44, ptr noundef %12, ptr noundef %11)
  %46 = icmp ne i32 %45, 0
  br i1 %46, label %53, label %47

47:                                               ; preds = %43
  %48 = load ptr, ptr @stderr, align 8, !tbaa !13
  %49 = load ptr, ptr %6, align 8, !tbaa !9
  %50 = call i32 (ptr, ptr, ...) @fprintf(ptr noundef %48, ptr noundef @.str.3, ptr noundef %49) #6
  %51 = load ptr, ptr %8, align 8, !tbaa !13
  %52 = call i32 @fclose(ptr noundef %51)
  store i32 0, ptr %4, align 4
  store i32 1, ptr %14, align 4
  br label %85

53:                                               ; preds = %43
  %54 = load i64, ptr %12, align 8, !tbaa !15
  %55 = trunc i64 %54 to i32
  %56 = load i32, ptr %10, align 4, !tbaa !11
  %57 = sext i32 %56 to i64
  %58 = getelementptr inbounds [64 x i32], ptr %13, i64 0, i64 %57
  store i32 %55, ptr %58, align 4, !tbaa !11
  br label %59

59:                                               ; preds = %53
  %60 = load i32, ptr %10, align 4, !tbaa !11
  %61 = add nsw i32 %60, 1
  store i32 %61, ptr %10, align 4, !tbaa !11
  br label %40, !llvm.loop !17

62:                                               ; preds = %40
  %63 = load ptr, ptr %5, align 8, !tbaa !4
  %64 = load i32, ptr %9, align 4, !tbaa !11
  %65 = getelementptr inbounds [64 x i32], ptr %13, i64 0, i64 0
  %66 = load i32, ptr %9, align 4, !tbaa !11
  %67 = sext i32 %66 to i64
  %68 = getelementptr inbounds [4 x i32], ptr @q_scale_factor, i64 0, i64 %67
  %69 = load i32, ptr %68, align 4, !tbaa !11
  %70 = load i32, ptr %7, align 4, !tbaa !11
  call void @jpeg_add_quant_table(ptr noundef %63, i32 noundef %64, ptr noundef %65, i32 noundef %69, i32 noundef %70)
  %71 = load i32, ptr %9, align 4, !tbaa !11
  %72 = add nsw i32 %71, 1
  store i32 %72, ptr %9, align 4, !tbaa !11
  br label %23, !llvm.loop !19

73:                                               ; preds = %23
  %74 = load i32, ptr %11, align 4, !tbaa !11
  %75 = icmp ne i32 %74, -1
  br i1 %75, label %76, label %82

76:                                               ; preds = %73
  %77 = load ptr, ptr @stderr, align 8, !tbaa !13
  %78 = load ptr, ptr %6, align 8, !tbaa !9
  %79 = call i32 (ptr, ptr, ...) @fprintf(ptr noundef %77, ptr noundef @.str.4, ptr noundef %78) #6
  %80 = load ptr, ptr %8, align 8, !tbaa !13
  %81 = call i32 @fclose(ptr noundef %80)
  store i32 0, ptr %4, align 4
  store i32 1, ptr %14, align 4
  br label %85

82:                                               ; preds = %73
  %83 = load ptr, ptr %8, align 8, !tbaa !13
  %84 = call i32 @fclose(ptr noundef %83)
  store i32 1, ptr %4, align 4
  store i32 1, ptr %14, align 4
  br label %85

85:                                               ; preds = %82, %76, %47, %30, %18
  call void @llvm.lifetime.end.p0(i64 256, ptr %13) #6
  call void @llvm.lifetime.end.p0(i64 8, ptr %12) #6
  call void @llvm.lifetime.end.p0(i64 4, ptr %11) #6
  call void @llvm.lifetime.end.p0(i64 4, ptr %10) #6
  call void @llvm.lifetime.end.p0(i64 4, ptr %9) #6
  call void @llvm.lifetime.end.p0(i64 8, ptr %8) #6
  %86 = load i32, ptr %4, align 4
  ret i32 %86
}