; Function Attrs: nounwind uwtable
define dso_local range(i32 0, 2) i32 @read_quant_tables(ptr noundef %0, ptr noundef %1, i32 noundef %2) local_unnamed_addr #0 {
  %4 = alloca i32, align 4
  %5 = alloca i64, align 8
  %6 = alloca [64 x i32], align 16
  call void @llvm.lifetime.start.p0(i64 4, ptr nonnull %4) #8
  call void @llvm.lifetime.start.p0(i64 8, ptr nonnull %5) #8
  call void @llvm.lifetime.start.p0(i64 256, ptr nonnull %6) #8
  %7 = tail call noalias ptr @fopen(ptr noundef %1, ptr noundef nonnull @.str)
  %8 = icmp eq ptr %7, null
  br i1 %8, label %10, label %.preheader29

.preheader29:                                     ; preds = %3
  %9 = call fastcc i32 @read_text_integer(ptr noundef %7, ptr noundef %5, ptr noundef %4)
  %.not45 = icmp eq i32 %9, 0
  br i1 %.not45, label %._crit_edge, label %.lr.ph

10:                                               ; preds = %3
  %11 = load ptr, ptr @stderr, align 8, !tbaa !4
  %12 = tail call i32 (ptr, ptr, ...) @fprintf(ptr noundef %11, ptr noundef nonnull @.str.1, ptr noundef %1) #9
  br label %71

.lr.ph:                                           ; preds = %.preheader29, %59
  %indvars.iv57 = phi i64 [ %indvars.iv.next58, %59 ], [ 0, %.preheader29 ]
  %exitcond60 = icmp eq i64 %indvars.iv57, 4
  br i1 %exitcond60, label %13, label %17

13:                                               ; preds = %.lr.ph
  %14 = load ptr, ptr @stderr, align 8, !tbaa !4
  %15 = call i32 (ptr, ptr, ...) @fprintf(ptr noundef %14, ptr noundef nonnull @.str.2, ptr noundef %1) #9
  %16 = call i32 @fclose(ptr noundef nonnull %7)
  br label %71

17:                                               ; preds = %.lr.ph
  %18 = load i64, ptr %5, align 8, !tbaa !9
  %19 = trunc i64 %18 to i32
  store i32 %19, ptr %6, align 16, !tbaa !11
  br label %.preheader

.preheader:                                       ; preds = %17, %56
  %indvars.iv = phi i64 [ 1, %17 ], [ %indvars.iv.next, %56 ]
  br label %20

20:                                               ; preds = %.preheader, %25
  %21 = call i32 @getc(ptr noundef nonnull %7)
  %22 = icmp eq i32 %21, 35
  br i1 %22, label %.preheader.i.i, label %text_getc.exit.i

.preheader.i.i:                                   ; preds = %20, %.preheader.i.i
  %23 = call i32 @getc(ptr noundef nonnull %7)
  switch i32 %23, label %.preheader.i.i [
    i32 -1, label %text_getc.exit.i
    i32 10, label %text_getc.exit.i
  ]

text_getc.exit.i:                                 ; preds = %.preheader.i.i, %.preheader.i.i, %20
  %.0.i.i = phi i32 [ %21, %20 ], [ %23, %.preheader.i.i ], [ %23, %.preheader.i.i ]
  %24 = icmp eq i32 %.0.i.i, -1
  br i1 %24, label %.loopexit, label %25

25:                                               ; preds = %text_getc.exit.i
  %26 = tail call ptr @__ctype_b_loc() #10
  %27 = load ptr, ptr %26, align 8, !tbaa !13
  %28 = sext i32 %.0.i.i to i64
  %29 = getelementptr inbounds i16, ptr %27, i64 %28
  %30 = load i16, ptr %29, align 2, !tbaa !15
  %31 = zext i16 %30 to i32
  %32 = and i32 %31, 8192
  %.not.i = icmp eq i32 %32, 0
  br i1 %.not.i, label %33, label %20, !llvm.loop !17

33:                                               ; preds = %25
  %34 = and i32 %31, 2048
  %.not21.i = icmp eq i32 %34, 0
  br i1 %.not21.i, label %.loopexit, label %35

35:                                               ; preds = %33
  %36 = add nsw i32 %.0.i.i, -48
  %37 = sext i32 %36 to i64
  br label %38

38:                                               ; preds = %48, %35
  %.0.i = phi i64 [ %37, %35 ], [ %52, %48 ]
  %39 = call i32 @getc(ptr noundef nonnull %7)
  %40 = icmp eq i32 %39, 35
  br i1 %40, label %.preheader.i25.i, label %text_getc.exit26.i

.preheader.i25.i:                                 ; preds = %38, %.preheader.i25.i
  %41 = call i32 @getc(ptr noundef nonnull %7)
  switch i32 %41, label %.preheader.i25.i [
    i32 -1, label %text_getc.exit26.i
    i32 10, label %text_getc.exit26.i
  ]

text_getc.exit26.i:                               ; preds = %.preheader.i25.i, %.preheader.i25.i, %38
  %.0.i24.i = phi i32 [ %39, %38 ], [ %41, %.preheader.i25.i ], [ %41, %.preheader.i25.i ]
  %.not22.i = icmp eq i32 %.0.i24.i, -1
  br i1 %.not22.i, label %56, label %42

42:                                               ; preds = %text_getc.exit26.i
  %43 = load ptr, ptr %26, align 8, !tbaa !13
  %44 = sext i32 %.0.i24.i to i64
  %45 = getelementptr inbounds i16, ptr %43, i64 %44
  %46 = load i16, ptr %45, align 2, !tbaa !15
  %47 = and i16 %46, 2048
  %.not23.i = icmp eq i16 %47, 0
  br i1 %.not23.i, label %56, label %48

48:                                               ; preds = %42
  %49 = mul nsw i64 %.0.i, 10
  %50 = add nsw i32 %.0.i24.i, -48
  %51 = sext i32 %50 to i64
  %52 = add nsw i64 %49, %51
  br label %38, !llvm.loop !19

.loopexit:                                        ; preds = %33, %text_getc.exit.i
  %53 = load ptr, ptr @stderr, align 8, !tbaa !4
  %54 = call i32 (ptr, ptr, ...) @fprintf(ptr noundef %53, ptr noundef nonnull @.str.3, ptr noundef %1) #9
  %55 = call i32 @fclose(ptr noundef nonnull %7)
  br label %71

56:                                               ; preds = %42, %text_getc.exit26.i
  %57 = trunc i64 %.0.i to i32
  %58 = getelementptr inbounds nuw [64 x i32], ptr %6, i64 0, i64 %indvars.iv
  store i32 %57, ptr %58, align 4, !tbaa !11
  %indvars.iv.next = add nuw nsw i64 %indvars.iv, 1
  %exitcond.not = icmp eq i64 %indvars.iv.next, 64
  br i1 %exitcond.not, label %59, label %.preheader, !llvm.loop !20

59:                                               ; preds = %56
  store i64 %.0.i, ptr %5, align 8
  store i32 %.0.i24.i, ptr %4, align 4
  %60 = getelementptr inbounds nuw [4 x i32], ptr @q_scale_factor, i64 0, i64 %indvars.iv57
  %61 = load i32, ptr %60, align 4, !tbaa !11
  %62 = trunc nuw nsw i64 %indvars.iv57 to i32
  call void @jpeg_add_quant_table(ptr noundef %0, i32 noundef %62, ptr noundef nonnull %6, i32 noundef %61, i32 noundef %2) #8
  %indvars.iv.next58 = add nuw nsw i64 %indvars.iv57, 1
  %63 = call fastcc i32 @read_text_integer(ptr noundef %7, ptr noundef %5, ptr noundef %4)
  %.not = icmp eq i32 %63, 0
  br i1 %.not, label %._crit_edge, label %.lr.ph, !llvm.loop !21

._crit_edge:                                      ; preds = %59, %.preheader29
  %64 = load i32, ptr %4, align 4, !tbaa !11
  %.not23 = icmp eq i32 %64, -1
  br i1 %.not23, label %69, label %65

65:                                               ; preds = %._crit_edge
  %66 = load ptr, ptr @stderr, align 8, !tbaa !4
  %67 = call i32 (ptr, ptr, ...) @fprintf(ptr noundef %66, ptr noundef nonnull @.str.4, ptr noundef %1) #9
  %68 = call i32 @fclose(ptr noundef nonnull %7)
  br label %71

69:                                               ; preds = %._crit_edge
  %70 = call i32 @fclose(ptr noundef nonnull %7)
  br label %71

71:                                               ; preds = %69, %65, %.loopexit, %13, %10
  %.021 = phi i32 [ 0, %10 ], [ 0, %13 ], [ 0, %.loopexit ], [ 0, %65 ], [ 1, %69 ]
  call void @llvm.lifetime.end.p0(i64 256, ptr nonnull %6) #8
  call void @llvm.lifetime.end.p0(i64 8, ptr nonnull %5) #8
  call void @llvm.lifetime.end.p0(i64 4, ptr nonnull %4) #8
  ret i32 %.021
}